(lp1
(S'root'
p2
S'down'
p3
S'node'
p4
tp5
a(VIN
p6
g3
g4
tp7
a(g2
S'up'
p8
tp9
a(VVBZ
p10
g3
g4
tp11
a(g2
g8
tp12
a(Vnsubj
p13
g3
g4
tp14
a.(lp1
(Vconj
p2
S'down'
p3
S'node'
p4
tp5
a(S'root'
p6
S'up'
p7
tp8
a(VIN
p9
g3
g4
tp10
a(g6
g7
tp11
a(VVBZ
p12
g3
g4
tp13
a(g6
g7
tp14
a(Vnsubj
p15
g3
g4
tp16
a.(lp1
(VNN
p2
S'down'
p3
S'node'
p4
tp5
a(Vnsubj
p6
g3
g4
tp7
a.(lp1
(Vnmod
p2
S'down'
p3
S'node'
p4
tp5
a(Vacl
p6
S'up'
p7
tp8
a(g2
g3
tp9
a(VVBN
p10
g3
g4
tp11
a(g2
g7
tp12
a(Vacl
p13
g3
tp14
a(Vnmod
p15
g3
g4
tp16
a.(lp1
(Vnmod
p2
S'down'
p3
S'node'
p4
tp5
a(Vacl
p6
S'up'
p7
tp8
a(g2
g3
tp9
a(VIN
p10
g3
g4
tp11
a(g2
g7
tp12
a(VVBN
p13
g7
g4
tp14
a(S'root'
p15
g7
tp16
a(Vnsubj
p17
g3
g4
tp18
a.(lp1
(Vdobj
p2
S'down'
p3
S'node'
p4
tp5
a(VVBZ
p6
S'up'
p7
g4
tp8
a(Vnsubj
p9
g3
g4
tp10
a.(lp1
(VNN
p2
S'down'
p3
S'node'
p4
tp5
a(S'root'
p6
S'up'
p7
tp8
a(Vnsubjpass
p9
g3
tp10
a(Vnmod
p11
g3
tp12
a(Vappos
p13
g3
g4
tp14
a.(lp1
(VVBN
p2
S'down'
p3
S'node'
p4
tp5
a(Vnsubjpass
p6
g3
tp7
a(Vnmod
p8
g3
tp9
a(Vappos
p10
g3
g4
tp11
a.(lp1
(Vxcomp
p2
S'down'
p3
S'node'
p4
tp5
a(VVBD
p6
S'up'
p7
g4
tp8
a(S'root'
p9
g7
tp10
a(Vnsubjpass
p11
g3
tp12
a(Vnmod
p13
g3
tp14
a(Vappos
p15
g3
g4
tp16
a.(lp1
(Vdobj
p2
S'down'
p3
S'node'
p4
tp5
a(VVBP
p6
S'up'
p7
g4
tp8
a(S'root'
p9
g7
tp10
a(Vparataxis
p11
g3
tp12
a(Vnsubj
p13
g3
g4
tp14
a.(lp1
(Vnsubjpass
p2
S'down'
p3
S'node'
p4
tp5
a(VVBN
p6
S'up'
p7
g4
tp8
a(Vnmod
p9
g3
g4
tp10
a.(lp1
(Vnsubjpass
p2
S'down'
p3
S'node'
p4
tp5
a(VVBN
p6
S'up'
p7
g4
tp8
a(Vnmod
p9
g3
g4
tp10
a.(lp1
(Vdobj
p2
S'down'
p3
S'node'
p4
tp5
a(VVBD
p6
S'up'
p7
g4
tp8
a(Vnmod
p9
g7
tp10
a(Vacl:relcl
p11
g3
tp12
a(Vnsubj
p13
g3
g4
tp14
a.(lp1
(Vdobj
p2
S'down'
p3
S'node'
p4
tp5
a(VVBN
p6
S'up'
p7
g4
tp8
a(Vnsubj
p9
g3
g4
tp10
a.(lp1
(Vnmod
p2
S'down'
p3
S'node'
p4
tp5
a(Vdobj
p6
S'up'
p7
tp8
a(g2
g3
tp9
a(VVBG
p10
g3
g4
tp11
a(g2
g7
tp12
a(g6
g7
g4
tp13
a.(lp1
(Vconj
p2
S'down'
p3
S'node'
p4
tp5
a(Vnmod
p6
S'up'
p7
tp8
a(VVBG
p9
g3
g4
tp10
a(g6
g7
tp11
a(Vdobj
p12
g7
g4
tp13
a.(lp1
(Vconj
p2
S'down'
p3
S'node'
p4
tp5
a(Vnmod
p6
S'up'
p7
tp8
a(VVBG
p9
g3
g4
tp10
a(g6
g7
tp11
a(Vdobj
p12
g7
g4
tp13
a.(lp1
(Vdobj
p2
S'down'
p3
S'node'
p4
tp5
a(VVBZ
p6
S'up'
p7
g4
tp8
a(Vnsubj
p9
g3
g4
tp10
a.(lp1
(VNN
p2
S'down'
p3
S'node'
p4
tp5
a(VNN
p6
S'up'
p7
g4
tp8
a(S'root'
p9
g7
tp10
a(Vdobj
p11
g3
g4
tp12
a.(lp1
(Vdobj
p2
S'down'
p3
S'node'
p4
tp5
a(VVBD
p6
S'up'
p7
g4
tp8
a(Vnsubj
p9
g3
g4
tp10
a.(lp1
(Vdobj
p2
S'down'
p3
S'node'
p4
tp5
a(VVBD
p6
S'up'
p7
g4
tp8
a(S'root'
p9
g7
tp10
a(Vnsubj
p11
g3
g4
tp12
a.(lp1
(Vdobj
p2
S'down'
p3
S'node'
p4
tp5
a(VVBZ
p6
S'up'
p7
g4
tp8
a(Vnsubj
p9
g3
g4
tp10
a.(lp1
(Vdobj
p2
S'down'
p3
S'node'
p4
tp5
a(VVBG
p6
S'up'
p7
g4
tp8
a(S'root'
p9
g7
tp10
a(Vnsubj
p11
g3
g4
tp12
a.(lp1
(Vdobj
p2
S'down'
p3
S'node'
p4
tp5
a(VVBG
p6
S'up'
p7
g4
tp8
a(Vdep
p9
g7
tp10
a(S'root'
p11
g7
tp12
a(Vnsubj
p13
g3
g4
tp14
a.(lp1
(Vdobj
p2
S'down'
p3
S'node'
p4
tp5
a(VVBZ
p6
S'up'
p7
g4
tp8
a(Vnsubj
p9
g3
g4
tp10
a.(lp1
(Vdobj
p2
S'down'
p3
S'node'
p4
tp5
a(VVBP
p6
S'up'
p7
g4
tp8
a(Vnsubj
p9
g3
g4
tp10
a.(lp1
(VVBN
p2
S'down'
p3
S'node'
p4
tp5
a(Vnsubjpass
p6
g3
g4
tp7
a.(lp1
(VJJ
p2
S'down'
p3
S'node'
p4
tp5
a(Vnsubj
p6
g3
g4
tp7
a.(lp1
(VNNS
p2
S'down'
p3
S'node'
p4
tp5
a(VVB
p6
S'up'
p7
g4
tp8
a(Vconj
p9
g7
tp10
a(Vxcomp
p11
g3
tp12
a(VTO
p13
g3
g4
tp14
a(g11
g7
tp15
a(VVBN
p16
g7
g4
tp17
a(S'root'
p18
g7
tp19
a(Vnsubj
p20
g3
g4
tp21
a.(lp1
(VJJ
p2
S'down'
p3
S'node'
p4
tp5
a(Vnsubj
p6
g3
g4
tp7
a.(lp1
(VVBN
p2
S'down'
p3
S'node'
p4
tp5
a(Vnsubjpass
p6
g3
g4
tp7
a.(lp1
(VNNP
p2
S'down'
p3
S'node'
p4
tp5
a(S'root'
p6
S'up'
p7
tp8
a(Vparataxis
p9
g3
tp10
a(Vnsubj
p11
g3
g4
tp12
a.