(lp1
(VNNS
p2
Vdobj
p3
S'down'
p4
S'variable'
p5
S'node'
p6
tp7
a(VVBZ
p8
S'root'
p9
S'up'
p10
S'function'
p11
g6
tp12
a(VPRP
p13
Vnsubj
p14
g4
g5
g6
tp15
a.(lp1
(VPRP
p2
Vnsubjpass
p3
S'down'
p4
S'variable'
p5
S'node'
p6
tp7
a(VVBN
p8
S'root'
p9
S'up'
p10
S'function'
p11
g6
tp12
a(VNNS
p13
Vnmod
p14
g4
g5
g6
tp15
a.(lp1
(VPRP
p2
Vnsubjpass
p3
S'down'
p4
S'variable'
p5
S'node'
p6
tp7
a(VVBN
p8
S'root'
p9
S'up'
p10
S'function'
p11
g6
tp12
a(VNNS
p13
Vnmod
p14
g4
S'null'
p15
tp16
a(VNNP
p17
Vdep
p18
g4
g5
g6
tp19
a.(lp1
(VPRP
p2
Vnsubjpass
p3
S'down'
p4
S'variable'
p5
S'node'
p6
tp7
a(VVBN
p8
S'root'
p9
S'up'
p10
S'function'
p11
g6
tp12
a(VNNS
p13
Vnmod
p14
g4
S'null'
p15
tp16
a(VNN
p17
Vconj
p18
g4
g5
g6
tp19
a.(lp1
(VNN
p2
Vdobj
p3
S'down'
p4
S'variable'
p5
S'node'
p6
tp7
a(VVBP
p8
Vparataxis
p9
S'up'
p10
S'function'
p11
g6
tp12
a(VVBN
p13
S'root'
p14
g10
S'null'
p15
tp16
a(g8
g9
g4
g15
tp17
a(VNNS
p18
Vnsubj
p19
g4
g5
g6
tp20
a.(lp1
(VNNS
p2
Vdobj
p3
S'down'
p4
S'variable'
p5
S'node'
p6
tp7
a(VVBD
p8
Vconj
p9
S'up'
p10
S'function'
p11
g6
tp12
a(VVBN
p13
S'root'
p14
g10
S'null'
p15
tp16
a(VRB
p17
Vadvmod
p18
g4
g15
tp19
a(VNNS
p20
Vnmod:npmod
p21
g4
g5
g6
tp22
a.(lp1
(VNNS
p2
Vconj
p3
S'down'
p4
S'variable'
p5
S'node'
p6
tp7
a(VVBN
p8
S'root'
p9
S'up'
p10
S'null'
p11
tp12
a(VVBD
p13
Vauxpass
p14
g4
S'function'
p15
g6
tp16
a(g8
g9
g10
g11
tp17
a(VRB
p18
Vadvmod
p19
g4
g11
tp20
a(VNNS
p21
Vnmod:npmod
p22
g4
g5
g6
tp23
a.(lp1
(VNN
p2
Vdobj
p3
S'down'
p4
S'variable'
p5
S'node'
p6
tp7
a(VVBD
p8
Vacl:relcl
p9
S'up'
p10
S'function'
p11
g6
tp12
a(VCD
p13
Vnmod
p14
g10
S'null'
p15
tp16
a(g8
g9
g4
g15
tp17
a(VWDT
p18
Vnsubj
p19
g4
g5
g6
tp20
a.(lp1
(VNN
p2
Vdobj
p3
S'down'
p4
S'variable'
p5
S'node'
p6
tp7
a(VVBN
p8
S'root'
p9
S'up'
p10
S'function'
p11
g6
tp12
a(VNN
p13
Vnsubj
p14
g4
g5
g6
tp15
a.(lp1
(VNN
p2
Vdobj
p3
S'down'
p4
S'variable'
p5
S'node'
p6
tp7
a(VVBZ
p8
S'root'
p9
S'up'
p10
S'function'
p11
g6
tp12
a(VNNPS
p13
Vnsubj
p14
g4
g5
g6
tp15
a.(lp1
(VCD
p2
Vdobj
p3
S'down'
p4
S'variable'
p5
S'node'
p6
tp7
a(VVBN
p8
S'root'
p9
S'up'
p10
S'function'
p11
g6
tp12
a(VNN
p13
Vnsubjpass
p14
g4
g5
g6
tp15
a.(lp1
(VNNP
p2
Vdobj
p3
S'down'
p4
S'variable'
p5
S'node'
p6
tp7
a(VVBD
p8
S'root'
p9
S'up'
p10
S'function'
p11
g6
tp12
a(VNNP
p13
Vnsubj
p14
g4
g5
g6
tp15
a.(lp1
(VNNS
p2
Vdobj
p3
S'down'
p4
S'variable'
p5
S'node'
p6
tp7
a(VVBD
p8
Vconj
p9
S'up'
p10
S'function'
p11
g6
tp12
a(VVBD
p13
S'root'
p14
g10
S'null'
p15
tp16
a(VNNP
p17
Vnsubj
p18
g4
g5
g6
tp19
a.(lp1
(VNNS
p2
Vdobj
p3
S'down'
p4
S'variable'
p5
S'node'
p6
tp7
a(VVBZ
p8
S'root'
p9
S'up'
p10
S'function'
p11
g6
tp12
a(VNNP
p13
Vnsubj
p14
g4
g5
g6
tp15
a.(lp1
(VNNS
p2
Vdobj
p3
S'down'
p4
S'variable'
p5
S'node'
p6
tp7
a(VVBG
p8
Vdep
p9
S'up'
p10
S'function'
p11
g6
tp12
a(VVBZ
p13
S'root'
p14
g10
S'null'
p15
tp16
a(VNNP
p17
Vnsubj
p18
g4
g5
g6
tp19
a.(lp1
(VNNS
p2
Vdobj
p3
S'down'
p4
S'variable'
p5
S'node'
p6
tp7
a(VVBG
p8
Vconj
p9
S'up'
p10
S'function'
p11
g6
tp12
a(VVBG
p13
Vdep
p14
g10
S'null'
p15
tp16
a(VVBZ
p17
S'root'
p18
g10
g15
tp19
a(VNNP
p20
Vnsubj
p21
g4
g5
g6
tp22
a.(lp1
(VNNS
p2
Vdobj
p3
S'down'
p4
S'variable'
p5
S'node'
p6
tp7
a(VVBZ
p8
S'root'
p9
S'up'
p10
S'function'
p11
g6
tp12
a(VNNP
p13
Vnsubj
p14
g4
g5
g6
tp15
a.(lp1
(VNN
p2
Vdobj
p3
S'down'
p4
S'variable'
p5
S'node'
p6
tp7
a(VVBP
p8
S'root'
p9
S'up'
p10
S'function'
p11
g6
tp12
a(VNNS
p13
Vnsubj
p14
g4
g5
g6
tp15
a.(lp1
(VNNP
p2
Vconj
p3
S'down'
p4
S'variable'
p5
S'node'
p6
tp7
a(VVBG
p8
S'root'
p9
S'up'
p10
S'null'
p11
tp12
a(g2
g3
g4
g11
tp13
a(VVBZ
p14
Vcop
p15
g4
S'function'
p16
g6
tp17
a(g2
g3
g10
g11
tp18
a(VNN
p19
Vnsubj
p20
g4
g5
g6
tp21
a.(lp1
(VPRP
p2
Vdobj
p3
S'down'
p4
S'variable'
p5
S'node'
p6
tp7
a(VVBZ
p8
Vacl:relcl
p9
S'up'
p10
S'function'
p11
g6
tp12
a(VNNS
p13
Vnmod
p14
g10
S'null'
p15
tp16
a(VVBN
p17
Vacl
p18
g10
g15
tp19
a(VNN
p20
Vnmod
p21
g10
g5
g6
tp22
a.(lp1
(VPRP
p2
Vdobj
p3
S'down'
p4
S'variable'
p5
S'node'
p6
tp7
a(VVBZ
p8
Vacl:relcl
p9
S'up'
p10
S'null'
p11
tp12
a(VVBZ
p13
Vconj
p14
g4
S'function'
p15
g6
tp16
a(g8
g9
g10
g11
tp17
a(VNNS
p18
Vnmod
p19
g10
g11
tp20
a(VVBN
p21
Vacl
p22
g10
g11
tp23
a(VNN
p24
Vnmod
p25
g10
g5
g6
tp26
a.(lp1
(VNN
p2
Vdobj
p3
S'down'
p4
S'variable'
p5
S'node'
p6
tp7
a(VVBZ
p8
Vconj
p9
S'up'
p10
S'function'
p11
g6
tp12
a(VVBZ
p13
Vacl:relcl
p14
g10
S'null'
p15
tp16
a(VNNS
p17
Vnmod
p18
g10
g15
tp19
a(VVBN
p20
Vacl
p21
g10
g15
tp22
a(VNN
p23
Vnmod
p24
g10
g5
g6
tp25
a.(lp1
(VNNS
p2
Vdobj
p3
S'down'
p4
S'variable'
p5
S'node'
p6
tp7
a(VVBZ
p8
S'root'
p9
S'up'
p10
S'function'
p11
g6
tp12
a(VNNP
p13
Vnsubj
p14
g4
g5
g6
tp15
a.(lp1
(VNN
p2
Vdobj
p3
S'down'
p4
S'variable'
p5
S'node'
p6
tp7
a(VVBZ
p8
S'root'
p9
S'up'
p10
S'function'
p11
g6
tp12
a(VPRP
p13
Vnsubj
p14
g4
g5
g6
tp15
a.(lp1
(VNNS
p2
Vdobj
p3
S'down'
p4
S'variable'
p5
S'node'
p6
tp7
a(VVBZ
p8
S'root'
p9
S'up'
p10
S'function'
p11
g6
tp12
a(VNNPS
p13
Vnsubj
p14
g4
g5
g6
tp15
a.(lp1
(VNNPS
p2
Vnsubjpass
p3
S'down'
p4
S'variable'
p5
S'node'
p6
tp7
a(VVBN
p8
S'root'
p9
S'up'
p10
S'function'
p11
g6
tp12
a(VNNS
p13
Vnmod
p14
g4
g5
g6
tp15
a.(lp1
(VNNPS
p2
Vnsubjpass
p3
S'down'
p4
S'variable'
p5
S'node'
p6
tp7
a(VVBN
p8
S'root'
p9
S'up'
p10
S'function'
p11
g6
tp12
a(VNNS
p13
Vnmod
p14
g4
S'null'
p15
tp16
a(VNNP
p17
Vdep
p18
g4
g5
g6
tp19
a.(lp1
(VNNPS
p2
Vnsubjpass
p3
S'down'
p4
S'variable'
p5
S'node'
p6
tp7
a(VVBN
p8
S'root'
p9
S'up'
p10
S'function'
p11
g6
tp12
a(VNNS
p13
Vnmod
p14
g4
S'null'
p15
tp16
a(VNN
p17
Vconj
p18
g4
g5
g6
tp19
a.(lp1
(VNN
p2
Vdobj
p3
S'down'
p4
S'variable'
p5
S'node'
p6
tp7
a(VVBZ
p8
S'root'
p9
S'up'
p10
S'function'
p11
g6
tp12
a(VNN
p13
Vnsubj
p14
g4
g5
g6
tp15
a.(lp1
(VNNP
p2
Vdobj
p3
S'down'
p4
S'variable'
p5
S'node'
p6
tp7
a(VVBP
p8
S'root'
p9
S'up'
p10
S'function'
p11
g6
tp12
a(VNNS
p13
Vnsubj
p14
g4
g5
g6
tp15
a.(lp1
(VNN
p2
Vnmod
p3
S'down'
p4
S'variable'
p5
S'node'
p6
tp7
a(VVB
p8
Vacl:relcl
p9
S'up'
p10
S'function'
p11
g6
tp12
a(VNNP
p13
Vdobj
p14
g10
S'null'
p15
tp16
a(g8
g9
g4
g15
tp17
a(g13
Vnsubj
p18
g4
g5
g6
tp19
a.(lp1
(VNN
p2
Vdobj
p3
S'down'
p4
S'variable'
p5
S'node'
p6
tp7
a(VVBP
p8
Vacl:relcl
p9
S'up'
p10
S'function'
p11
g6
tp12
a(VNNP
p13
Vconj
p14
g10
S'null'
p15
tp16
a(g8
g9
g4
g15
tp17
a(g13
Vnsubj
p18
g4
g5
g6
tp19
a.(lp1
(VNN
p2
Vnsubjpass
p3
S'down'
p4
S'variable'
p5
S'node'
p6
tp7
a(VVBN
p8
S'root'
p9
S'up'
p10
S'function'
p11
g6
tp12
a(VNNS
p13
Vnmod
p14
g4
g5
g6
tp15
a.(lp1
(VNN
p2
Vnsubjpass
p3
S'down'
p4
S'variable'
p5
S'node'
p6
tp7
a(VVBN
p8
S'root'
p9
S'up'
p10
S'function'
p11
g6
tp12
a(VNNS
p13
Vnmod
p14
g4
S'null'
p15
tp16
a(VVBN
p17
Vacl:relcl
p18
g4
g15
tp19
a(VNNP
p20
Vnsubj
p21
g4
g5
g6
tp22
a.(lp1
(VNN
p2
Vnsubjpass
p3
S'down'
p4
S'variable'
p5
S'node'
p6
tp7
a(VVBN
p8
S'root'
p9
S'up'
p10
S'function'
p11
g6
tp12
a(VNNS
p13
Vnmod
p14
g4
S'null'
p15
tp16
a(VVBN
p17
Vacl:relcl
p18
g4
g15
tp19
a(VNNP
p20
Vnsubj
p21
g4
g15
tp22
a(VVBN
p23
Vacl
p24
g4
g15
tp25
a(VNNP
p26
Vnmod
p27
g4
g15
tp28
a(VNN
p29
Vconj
p30
g4
g5
g6
tp31
a.(lp1
(VNNPS
p2
Vdobj
p3
S'down'
p4
S'variable'
p5
S'node'
p6
tp7
a(VVBN
p8
S'root'
p9
S'up'
p10
S'function'
p11
g6
tp12
a(VNN
p13
Vnsubjpass
p14
g4
g5
g6
tp15
a.(lp1
(VNN
p2
Vdobj
p3
S'down'
p4
S'variable'
p5
S'node'
p6
tp7
a(VVBN
p8
Vacl
p9
S'up'
p10
S'function'
p11
g6
tp12
a(VNNPS
p13
Vdobj
p14
g10
g5
g6
tp15
a.(lp1
(VNN
p2
Vdobj
p3
S'down'
p4
S'variable'
p5
S'node'
p6
tp7
a(VVBD
p8
S'root'
p9
S'up'
p10
S'function'
p11
g6
tp12
a(VNN
p13
Vnsubj
p14
g4
g5
g6
tp15
a.(lp1
(VNN
p2
Vnmod
p3
S'down'
p4
S'variable'
p5
S'node'
p6
tp7
a(VVBD
p8
S'root'
p9
S'up'
p10
S'function'
p11
g6
tp12
a(VPRP
p13
Vnsubj
p14
g4
g5
g6
tp15
a.(lp1
(VNN
p2
Vnmod
p3
S'down'
p4
S'variable'
p5
S'node'
p6
tp7
a(VVBD
p8
S'root'
p9
S'up'
p10
S'function'
p11
g6
tp12
a(VNNS
p13
Vnmod
p14
g4
g5
g6
tp15
a.(lp1
(VNN
p2
Vdobj
p3
S'down'
p4
S'variable'
p5
S'node'
p6
tp7
a(VVBD
p8
S'root'
p9
S'up'
p10
S'function'
p11
g6
tp12
a(VNN
p13
Vnsubj
p14
g4
g5
g6
tp15
a.(lp1
(VNN
p2
Vdobj
p3
S'down'
p4
S'variable'
p5
S'node'
p6
tp7
a(VVBD
p8
Vacl:relcl
p9
S'up'
p10
S'function'
p11
g6
tp12
a(VNNS
p13
Vdobj
p14
g10
S'null'
p15
tp16
a(g8
g9
g4
g15
tp17
a(g13
Vnsubj
p18
g4
g5
g6
tp19
a.(lp1
(VNN
p2
Vdobj
p3
S'down'
p4
S'variable'
p5
S'node'
p6
tp7
a(VVBD
p8
S'root'
p9
S'up'
p10
S'function'
p11
g6
tp12
a(VNN
p13
Vnsubj
p14
g4
g5
g6
tp15
a.(lp1
(VNN
p2
Vdobj
p3
S'down'
p4
S'variable'
p5
S'node'
p6
tp7
a(VVBD
p8
S'root'
p9
S'up'
p10
S'function'
p11
g6
tp12
a(VPRP
p13
Vnsubj
p14
g4
g5
g6
tp15
a.(lp1
(VPRP
p2
Vnsubj
p3
S'down'
p4
S'variable'
p5
S'node'
p6
tp7
a(VNN
p8
Vxcomp
p9
S'up'
p10
S'null'
p11
tp12
a(VVBD
p13
S'root'
p14
g10
S'function'
p15
g6
tp16
a(VNN
p17
Vnsubj
p18
g4
g5
g6
tp19
a.(lp1
(VNNS
p2
Vdobj
p3
S'down'
p4
S'variable'
p5
S'node'
p6
tp7
a(VVB
p8
Vconj
p9
S'up'
p10
S'function'
p11
g6
tp12
a(VVB
p13
S'root'
p14
g10
S'null'
p15
tp16
a(VNN
p17
Vnsubj
p18
g4
g5
g6
tp19
a.(lp1
(VNNS
p2
Vdobj
p3
S'down'
p4
S'variable'
p5
S'node'
p6
tp7
a(VVBD
p8
Vacl:relcl
p9
S'up'
p10
S'function'
p11
g6
tp12
a(VNN
p13
Vnmod
p14
g10
S'null'
p15
tp16
a(g8
g9
g4
g15
tp17
a(VPRP
p18
Vnsubj
p19
g4
g5
g6
tp20
a.(lp1
(VNN
p2
Vdobj
p3
S'down'
p4
S'variable'
p5
S'node'
p6
tp7
a(VVBD
p8
S'root'
p9
S'up'
p10
S'function'
p11
g6
tp12
a(VNN
p13
Vnsubj
p14
g4
g5
g6
tp15
a.(lp1
(VNN
p2
Vdobj
p3
S'down'
p4
S'variable'
p5
S'node'
p6
tp7
a(VVBG
p8
Vacl
p9
S'up'
p10
S'function'
p11
g6
tp12
a(VNN
p13
Vdobj
p14
g10
S'null'
p15
tp16
a(VVBD
p17
S'root'
p18
g10
g15
tp19
a(VNN
p20
Vnsubj
p21
g4
g5
g6
tp22
a.(lp1
(VNN
p2
Vnmod
p3
S'down'
p4
S'variable'
p5
S'node'
p6
tp7
a(VVBD
p8
S'root'
p9
S'up'
p10
S'function'
p11
g6
tp12
a(VNN
p13
Vnsubj
p14
g4
g5
g6
tp15
a.(lp1
(VNN
p2
Vdobj
p3
S'down'
p4
S'variable'
p5
S'node'
p6
tp7
a(VVBD
p8
S'root'
p9
S'up'
p10
S'function'
p11
g6
tp12
a(VNNS
p13
Vnsubj
p14
g4
g5
g6
tp15
a.(lp1
(VNNS
p2
Vnmod
p3
S'down'
p4
S'variable'
p5
S'node'
p6
tp7
a(VVBN
p8
Vxcomp
p9
S'up'
p10
S'null'
p11
tp12
a(VVBD
p13
S'root'
p14
g10
S'function'
p15
g6
tp16
a(VNNS
p17
Vnsubj
p18
g4
g5
g6
tp19
a.(lp1
(VNNS
p2
Vnmod
p3
S'down'
p4
S'variable'
p5
S'node'
p6
tp7
a(VVBN
p8
Vxcomp
p9
S'up'
p10
S'null'
p11
tp12
a(VVBD
p13
S'root'
p14
g10
S'function'
p15
g6
tp16
a(VNNS
p17
Vnsubj
p18
g4
g11
tp19
a(VNN
p20
Vconj
p21
g4
g5
g6
tp22
a.(lp1
(VNN
p2
Vdobj
p3
S'down'
p4
S'variable'
p5
S'node'
p6
tp7
a(VVBD
p8
Vconj
p9
S'up'
p10
S'function'
p11
g6
tp12
a(VVBD
p13
S'root'
p14
g10
S'null'
p15
tp16
a(g8
g9
g4
g15
tp17
a(VNNS
p18
Vnsubj
p19
g4
g5
g6
tp20
a.(lp1
(VNN
p2
Vdobj
p3
S'down'
p4
S'variable'
p5
S'node'
p6
tp7
a(VVBG
p8
Vacl
p9
S'up'
p10
S'function'
p11
g6
tp12
a(VNN
p13
Vdobj
p14
g10
S'null'
p15
tp16
a(VVBD
p17
Vconj
p18
g10
g15
tp19
a(VNNS
p20
Vnsubj
p21
g4
g5
g6
tp22
a.(lp1
(VNN
p2
Vxcomp
p3
S'down'
p4
S'variable'
p5
S'node'
p6
tp7
a(VVB
p8
Vadvcl
p9
S'up'
p10
S'function'
p11
g6
tp12
a(VVBG
p13
Vacl
p14
g10
S'null'
p15
tp16
a(VNN
p17
Vdobj
p18
g10
g15
tp19
a(VVBD
p20
Vconj
p21
g10
g15
tp22
a(VNNS
p23
Vnsubj
p24
g4
g5
g6
tp25
a.(lp1
(VNN
p2
Vdobj
p3
S'down'
p4
S'variable'
p5
S'node'
p6
tp7
a(VVBD
p8
S'root'
p9
S'up'
p10
S'function'
p11
g6
tp12
a(VNNS
p13
Vnsubj
p14
g4
g5
g6
tp15
a.(lp1
(VNN
p2
Vdobj
p3
S'down'
p4
S'variable'
p5
S'node'
p6
tp7
a(VVBG
p8
Vacl
p9
S'up'
p10
S'function'
p11
g6
tp12
a(VNN
p13
Vnmod
p14
g10
S'null'
p15
tp16
a(VNN
p17
Vdobj
p18
g10
g15
tp19
a(VVBD
p20
S'root'
p21
g10
g15
tp22
a(VNNS
p23
Vnsubj
p24
g4
g5
g6
tp25
a.(lp1
(VNN
p2
Vxcomp
p3
S'down'
p4
S'variable'
p5
S'node'
p6
tp7
a(VVBD
p8
S'root'
p9
S'up'
p10
S'function'
p11
g6
tp12
a(VNN
p13
Vnsubj
p14
g4
g5
g6
tp15
a.(lp1
(VNN
p2
Vdobj
p3
S'down'
p4
S'variable'
p5
S'node'
p6
tp7
a(VVBG
p8
Vxcomp
p9
S'up'
p10
S'function'
p11
g6
tp12
a(VVBD
p13
Vconj
p14
g10
S'null'
p15
tp16
a(VVBD
p17
S'root'
p18
g10
g15
tp19
a(VNN
p20
Vnsubj
p21
g4
g5
g6
tp22
a.
